; ModuleID = 'source-C-CXX/12/292.cpp'
source_filename = "source-C-CXX/12/292.cpp"
target datalayout = "e-m:e-p270:32:32-p271:32:32-p272:64:64-i64:64-f80:128-n8:16:32:64-S128"
target triple = "x86_64-pc-linux-gnu"

%"class.std::ios_base::Init" = type { i8 }
%"class.std::basic_istream" = type { i32 (...)**, i64, %"class.std::basic_ios" }
%"class.std::basic_ios" = type { %"class.std::ios_base", %"class.std::basic_ostream"*, i8, i8, %"class.std::basic_streambuf"*, %"class.std::ctype"*, %"class.std::num_put"*, %"class.std::num_get"* }
%"class.std::ios_base" = type { i32 (...)**, i64, i64, i32, i32, i32, %"struct.std::ios_base::_Callback_list"*, %"struct.std::ios_base::_Words", [8 x %"struct.std::ios_base::_Words"], i32, %"struct.std::ios_base::_Words"*, %"class.std::locale" }
%"struct.std::ios_base::_Callback_list" = type { %"struct.std::ios_base::_Callback_list"*, void (i32, %"class.std::ios_base"*, i32)*, i32, i32 }
%"struct.std::ios_base::_Words" = type { i8*, i64 }
%"class.std::locale" = type { %"class.std::locale::_Impl"* }
%"class.std::locale::_Impl" = type { i32, %"class.std::locale::facet"**, i64, %"class.std::locale::facet"**, i8** }
%"class.std::locale::facet" = type <{ i32 (...)**, i32, [4 x i8] }>
%"class.std::basic_ostream" = type { i32 (...)**, %"class.std::basic_ios" }
%"class.std::basic_streambuf" = type { i32 (...)**, i8*, i8*, i8*, i8*, i8*, i8*, %"class.std::locale" }
%"class.std::ctype" = type <{ %"class.std::locale::facet.base", [4 x i8], %struct.__locale_struct*, i8, [7 x i8], i32*, i32*, i16*, i8, [256 x i8], [256 x i8], i8, [6 x i8] }>
%"class.std::locale::facet.base" = type <{ i32 (...)**, i32 }>
%struct.__locale_struct = type { [13 x %struct.__locale_data*], i16*, i32*, i32*, [13 x i8*] }
%struct.__locale_data = type opaque
%"class.std::num_put" = type { %"class.std::locale::facet.base", [4 x i8] }
%"class.std::num_get" = type { %"class.std::locale::facet.base", [4 x i8] }

@_ZStL8__ioinit = internal global %"class.std::ios_base::Init" zeroinitializer, align 1
@__dso_handle = external hidden global i8
@_ZSt3cin = external global %"class.std::basic_istream", align 8
@_ZSt4cout = external global %"class.std::basic_ostream", align 8
@.str = private unnamed_addr constant [2 x i8] c" \00", align 1
@llvm.global_ctors = appending global [1 x { i32, void ()*, i8* }] [{ i32, void ()*, i8* } { i32 65535, void ()* @_GLOBAL__sub_I_292.cpp, i8* null }]

declare void @_ZNSt8ios_base4InitC1Ev(%"class.std::ios_base::Init"* nonnull align 1 dereferenceable(1)) unnamed_addr #0

; Function Attrs: nounwind
declare void @_ZNSt8ios_base4InitD1Ev(%"class.std::ios_base::Init"* nonnull align 1 dereferenceable(1)) unnamed_addr #1

; Function Attrs: nofree nounwind
declare i32 @__cxa_atexit(void (i8*)*, i8*, i8*) local_unnamed_addr #2

; Function Attrs: mustprogress norecurse sspstrong uwtable
define dso_local i32 @main() local_unnamed_addr #3 {
  %1 = alloca i32, align 4
  %2 = alloca [20000 x i32], align 16
  %3 = bitcast i32* %1 to i8*
  call void @llvm.lifetime.start.p0i8(i64 4, i8* nonnull %3) #6
  %4 = call nonnull align 8 dereferenceable(16) %"class.std::basic_istream"* @_ZNSirsERi(%"class.std::basic_istream"* nonnull align 8 dereferenceable(16) @_ZSt3cin, i32* nonnull align 4 dereferenceable(4) %1)
  %5 = bitcast [20000 x i32]* %2 to i8*
  call void @llvm.lifetime.start.p0i8(i64 80000, i8* nonnull %5) #6
  %6 = load i32, i32* %1, align 4, !tbaa !5
  %7 = icmp sgt i32 %6, 0
  br i1 %7, label %10, label %26

8:                                                ; preds = %10
  %9 = icmp sgt i32 %15, 0
  br i1 %9, label %30, label %26

10:                                               ; preds = %0, %10
  %11 = phi i64 [ %14, %10 ], [ 0, %0 ]
  %12 = getelementptr inbounds [20000 x i32], [20000 x i32]* %2, i64 0, i64 %11
  %13 = call nonnull align 8 dereferenceable(16) %"class.std::basic_istream"* @_ZNSirsERi(%"class.std::basic_istream"* nonnull align 8 dereferenceable(16) @_ZSt3cin, i32* nonnull align 4 dereferenceable(4) %12)
  %14 = add nuw nsw i64 %11, 1
  %15 = load i32, i32* %1, align 4, !tbaa !5
  %16 = sext i32 %15 to i64
  %17 = icmp slt i64 %14, %16
  br i1 %17, label %10, label %8, !llvm.loop !9

18:                                               ; preds = %126
  %19 = sext i32 %127 to i64
  br label %20

20:                                               ; preds = %18, %30
  %21 = phi i64 [ %19, %18 ], [ %35, %30 ]
  %22 = phi i32 [ %127, %18 ], [ %31, %30 ]
  %23 = icmp slt i64 %33, %21
  br i1 %23, label %30, label %24, !llvm.loop !11

24:                                               ; preds = %20
  %25 = icmp sgt i32 %22, 1
  br i1 %25, label %131, label %26

26:                                               ; preds = %0, %8, %24
  %27 = phi i32 [ %22, %24 ], [ %15, %8 ], [ %6, %0 ]
  %28 = add nsw i32 %27, -1
  %29 = sext i32 %28 to i64
  br label %142

30:                                               ; preds = %8, %20
  %31 = phi i32 [ %22, %20 ], [ %15, %8 ]
  %32 = phi i64 [ %33, %20 ], [ 0, %8 ]
  %33 = add nuw nsw i64 %32, 1
  %34 = getelementptr inbounds [20000 x i32], [20000 x i32]* %2, i64 0, i64 %32
  %35 = sext i32 %31 to i64
  %36 = icmp slt i64 %33, %35
  br i1 %36, label %37, label %20

37:                                               ; preds = %30
  %38 = trunc i64 %33 to i32
  br label %39

39:                                               ; preds = %37, %126
  %40 = phi i32 [ %127, %126 ], [ %31, %37 ]
  %41 = phi i32 [ %128, %126 ], [ %31, %37 ]
  %42 = phi i32 [ %129, %126 ], [ %38, %37 ]
  %43 = load i32, i32* %34, align 4, !tbaa !5
  %44 = sext i32 %42 to i64
  %45 = getelementptr inbounds [20000 x i32], [20000 x i32]* %2, i64 0, i64 %44
  %46 = load i32, i32* %45, align 4, !tbaa !5
  %47 = icmp eq i32 %43, %46
  br i1 %47, label %48, label %124

48:                                               ; preds = %39
  %49 = add i32 %41, -1
  store i32 %49, i32* %1, align 4, !tbaa !5
  %50 = icmp slt i32 %42, %49
  br i1 %50, label %51, label %126

51:                                               ; preds = %48
  %52 = sext i32 %49 to i64
  %53 = sext i32 %49 to i64
  %54 = sub nsw i64 %53, %44
  %55 = icmp ult i64 %54, 8
  br i1 %55, label %115, label %56

56:                                               ; preds = %51
  %57 = and i64 %54, -8
  %58 = add nsw i64 %57, %44
  %59 = add nsw i64 %57, -8
  %60 = lshr exact i64 %59, 3
  %61 = add nuw nsw i64 %60, 1
  %62 = and i64 %61, 1
  %63 = icmp eq i64 %59, 0
  br i1 %63, label %97, label %64

64:                                               ; preds = %56
  %65 = and i64 %61, 4611686018427387902
  br label %66

66:                                               ; preds = %66, %64
  %67 = phi i64 [ 0, %64 ], [ %94, %66 ]
  %68 = phi i64 [ %65, %64 ], [ %95, %66 ]
  %69 = add i64 %67, %44
  %70 = add nsw i64 %69, 1
  %71 = getelementptr inbounds [20000 x i32], [20000 x i32]* %2, i64 0, i64 %70
  %72 = bitcast i32* %71 to <4 x i32>*
  %73 = load <4 x i32>, <4 x i32>* %72, align 4, !tbaa !5
  %74 = getelementptr inbounds i32, i32* %71, i64 4
  %75 = bitcast i32* %74 to <4 x i32>*
  %76 = load <4 x i32>, <4 x i32>* %75, align 4, !tbaa !5
  %77 = getelementptr inbounds [20000 x i32], [20000 x i32]* %2, i64 0, i64 %69
  %78 = bitcast i32* %77 to <4 x i32>*
  store <4 x i32> %73, <4 x i32>* %78, align 4, !tbaa !5
  %79 = getelementptr inbounds i32, i32* %77, i64 4
  %80 = bitcast i32* %79 to <4 x i32>*
  store <4 x i32> %76, <4 x i32>* %80, align 4, !tbaa !5
  %81 = or i64 %67, 8
  %82 = add i64 %81, %44
  %83 = add nsw i64 %82, 1
  %84 = getelementptr inbounds [20000 x i32], [20000 x i32]* %2, i64 0, i64 %83
  %85 = bitcast i32* %84 to <4 x i32>*
  %86 = load <4 x i32>, <4 x i32>* %85, align 4, !tbaa !5
  %87 = getelementptr inbounds i32, i32* %84, i64 4
  %88 = bitcast i32* %87 to <4 x i32>*
  %89 = load <4 x i32>, <4 x i32>* %88, align 4, !tbaa !5
  %90 = getelementptr inbounds [20000 x i32], [20000 x i32]* %2, i64 0, i64 %82
  %91 = bitcast i32* %90 to <4 x i32>*
  store <4 x i32> %86, <4 x i32>* %91, align 4, !tbaa !5
  %92 = getelementptr inbounds i32, i32* %90, i64 4
  %93 = bitcast i32* %92 to <4 x i32>*
  store <4 x i32> %89, <4 x i32>* %93, align 4, !tbaa !5
  %94 = add nuw i64 %67, 16
  %95 = add i64 %68, -2
  %96 = icmp eq i64 %95, 0
  br i1 %96, label %97, label %66, !llvm.loop !12

97:                                               ; preds = %66, %56
  %98 = phi i64 [ 0, %56 ], [ %94, %66 ]
  %99 = icmp eq i64 %62, 0
  br i1 %99, label %113, label %100

100:                                              ; preds = %97
  %101 = add i64 %98, %44
  %102 = add nsw i64 %101, 1
  %103 = getelementptr inbounds [20000 x i32], [20000 x i32]* %2, i64 0, i64 %102
  %104 = bitcast i32* %103 to <4 x i32>*
  %105 = load <4 x i32>, <4 x i32>* %104, align 4, !tbaa !5
  %106 = getelementptr inbounds i32, i32* %103, i64 4
  %107 = bitcast i32* %106 to <4 x i32>*
  %108 = load <4 x i32>, <4 x i32>* %107, align 4, !tbaa !5
  %109 = getelementptr inbounds [20000 x i32], [20000 x i32]* %2, i64 0, i64 %101
  %110 = bitcast i32* %109 to <4 x i32>*
  store <4 x i32> %105, <4 x i32>* %110, align 4, !tbaa !5
  %111 = getelementptr inbounds i32, i32* %109, i64 4
  %112 = bitcast i32* %111 to <4 x i32>*
  store <4 x i32> %108, <4 x i32>* %112, align 4, !tbaa !5
  br label %113

113:                                              ; preds = %97, %100
  %114 = icmp eq i64 %54, %57
  br i1 %114, label %126, label %115

115:                                              ; preds = %51, %113
  %116 = phi i64 [ %44, %51 ], [ %58, %113 ]
  br label %117

117:                                              ; preds = %115, %117
  %118 = phi i64 [ %119, %117 ], [ %116, %115 ]
  %119 = add nsw i64 %118, 1
  %120 = getelementptr inbounds [20000 x i32], [20000 x i32]* %2, i64 0, i64 %119
  %121 = load i32, i32* %120, align 4, !tbaa !5
  %122 = getelementptr inbounds [20000 x i32], [20000 x i32]* %2, i64 0, i64 %118
  store i32 %121, i32* %122, align 4, !tbaa !5
  %123 = icmp eq i64 %119, %52
  br i1 %123, label %126, label %117, !llvm.loop !14

124:                                              ; preds = %39
  %125 = add nsw i32 %42, 1
  br label %126

126:                                              ; preds = %117, %113, %48, %124
  %127 = phi i32 [ %40, %124 ], [ %49, %48 ], [ %49, %113 ], [ %49, %117 ]
  %128 = phi i32 [ %41, %124 ], [ %49, %48 ], [ %49, %113 ], [ %49, %117 ]
  %129 = phi i32 [ %125, %124 ], [ %42, %48 ], [ %42, %113 ], [ %42, %117 ]
  %130 = icmp slt i32 %129, %128
  br i1 %130, label %39, label %18, !llvm.loop !16

131:                                              ; preds = %24, %131
  %132 = phi i64 [ %137, %131 ], [ 0, %24 ]
  %133 = getelementptr inbounds [20000 x i32], [20000 x i32]* %2, i64 0, i64 %132
  %134 = load i32, i32* %133, align 4, !tbaa !5
  %135 = call nonnull align 8 dereferenceable(8) %"class.std::basic_ostream"* @_ZNSolsEi(%"class.std::basic_ostream"* nonnull align 8 dereferenceable(8) @_ZSt4cout, i32 %134)
  %136 = call nonnull align 8 dereferenceable(8) %"class.std::basic_ostream"* @_ZSt16__ostream_insertIcSt11char_traitsIcEERSt13basic_ostreamIT_T0_ES6_PKS3_l(%"class.std::basic_ostream"* nonnull align 8 dereferenceable(8) %135, i8* nonnull getelementptr inbounds ([2 x i8], [2 x i8]* @.str, i64 0, i64 0), i64 1)
  %137 = add nuw nsw i64 %132, 1
  %138 = load i32, i32* %1, align 4, !tbaa !5
  %139 = add nsw i32 %138, -1
  %140 = sext i32 %139 to i64
  %141 = icmp slt i64 %137, %140
  br i1 %141, label %131, label %142, !llvm.loop !17

142:                                              ; preds = %131, %26
  %143 = phi i64 [ %29, %26 ], [ %140, %131 ]
  %144 = getelementptr inbounds [20000 x i32], [20000 x i32]* %2, i64 0, i64 %143
  %145 = load i32, i32* %144, align 4, !tbaa !5
  %146 = call nonnull align 8 dereferenceable(8) %"class.std::basic_ostream"* @_ZNSolsEi(%"class.std::basic_ostream"* nonnull align 8 dereferenceable(8) @_ZSt4cout, i32 %145)
  call void @llvm.lifetime.end.p0i8(i64 80000, i8* nonnull %5) #6
  call void @llvm.lifetime.end.p0i8(i64 4, i8* nonnull %3) #6
  ret i32 0
}

; Function Attrs: argmemonly mustprogress nofree nosync nounwind willreturn
declare void @llvm.lifetime.start.p0i8(i64 immarg, i8* nocapture) #4

declare nonnull align 8 dereferenceable(16) %"class.std::basic_istream"* @_ZNSirsERi(%"class.std::basic_istream"* nonnull align 8 dereferenceable(16), i32* nonnull align 4 dereferenceable(4)) local_unnamed_addr #0

declare nonnull align 8 dereferenceable(8) %"class.std::basic_ostream"* @_ZNSolsEi(%"class.std::basic_ostream"* nonnull align 8 dereferenceable(8), i32) local_unnamed_addr #0

; Function Attrs: argmemonly mustprogress nofree nosync nounwind willreturn
declare void @llvm.lifetime.end.p0i8(i64 immarg, i8* nocapture) #4

declare nonnull align 8 dereferenceable(8) %"class.std::basic_ostream"* @_ZSt16__ostream_insertIcSt11char_traitsIcEERSt13basic_ostreamIT_T0_ES6_PKS3_l(%"class.std::basic_ostream"* nonnull align 8 dereferenceable(8), i8*, i64) local_unnamed_addr #0

; Function Attrs: sspstrong uwtable
define internal void @_GLOBAL__sub_I_292.cpp() #5 section ".text.startup" {
  tail call void @_ZNSt8ios_base4InitC1Ev(%"class.std::ios_base::Init"* nonnull align 1 dereferenceable(1) @_ZStL8__ioinit)
  %1 = tail call i32 @__cxa_atexit(void (i8*)* bitcast (void (%"class.std::ios_base::Init"*)* @_ZNSt8ios_base4InitD1Ev to void (i8*)*), i8* getelementptr inbounds (%"class.std::ios_base::Init", %"class.std::ios_base::Init"* @_ZStL8__ioinit, i64 0, i32 0), i8* nonnull @__dso_handle) #6
  ret void
}


!llvm.module.flags = !{!0, !1, !2, !3}
!llvm.ident = !{!4}

!0 = !{i32 1, !"wchar_size", i32 4}
!1 = !{i32 7, !"PIC Level", i32 2}
!2 = !{i32 7, !"PIE Level", i32 2}
!3 = !{i32 7, !"uwtable", i32 1}
!4 = !{!"clang version 13.0.0"}
!5 = !{!6, !6, i64 0}
!6 = !{!"int", !7, i64 0}
!7 = !{!"omnipotent char", !8, i64 0}
!8 = !{!"Simple C++ TBAA"}
!9 = distinct !{!9, !10}
!10 = !{!"llvm.loop.mustprogress"}
!11 = distinct !{!11, !10}
!12 = distinct !{!12, !10, !13}
!13 = !{!"llvm.loop.isvectorized", i32 1}
!14 = distinct !{!14, !10, !15, !13}
!15 = !{!"llvm.loop.unroll.runtime.disable"}
!16 = distinct !{!16, !10}
!17 = distinct !{!17, !10}
